; Function Attrs: nofree norecurse nosync nounwind memory(argmem: read) uwtable
define zeroext i1 @PMIx_Procid_invalid(ptr noundef readonly captures(address_is_null) %0) local_unnamed_addr #3 {
  %2 = icmp eq ptr %0, null
  br i1 %2, label %pmix_bfrops_base_tma_procid_invalid.exit, label %.preheader.i.i.i

.preheader.i.i.i:                                 ; preds = %1, %5
  %.0711.i.i.i = phi i64 [ %6, %5 ], [ 0, %1 ]
  %.0810.i.i.i = phi ptr [ %7, %5 ], [ %0, %1 ]
  %3 = load i8, ptr %.0810.i.i.i, align 1, !tbaa !3
  %4 = icmp eq i8 %3, 0
  br i1 %4, label %pmix_bfrops_base_tma_nspace_invalid.exit.i, label %5

5:                                                ; preds = %.preheader.i.i.i
  %6 = add nuw nsw i64 %.0711.i.i.i, 1
  %7 = getelementptr inbounds nuw i8, ptr %.0810.i.i.i, i64 1
  %exitcond.not.i.i.i = icmp eq i64 %6, 256
  br i1 %exitcond.not.i.i.i, label %pmix_bfrops_base_tma_nspace_invalid.exit.thread2.i, label %.preheader.i.i.i, !llvm.loop !8

pmix_bfrops_base_tma_nspace_invalid.exit.i:       ; preds = %.preheader.i.i.i
  %8 = icmp eq i64 %.0711.i.i.i, 0
  br i1 %8, label %pmix_bfrops_base_tma_procid_invalid.exit, label %pmix_bfrops_base_tma_nspace_invalid.exit.thread2.i

pmix_bfrops_base_tma_nspace_invalid.exit.thread2.i: ; preds = %5, %pmix_bfrops_base_tma_nspace_invalid.exit.i
  %9 = getelementptr inbounds nuw i8, ptr %0, i64 256
  %10 = load i32, ptr %9, align 4, !tbaa !9
  %11 = icmp eq i32 %10, -4
  br label %pmix_bfrops_base_tma_procid_invalid.exit

pmix_bfrops_base_tma_procid_invalid.exit:         ; preds = %1, %pmix_bfrops_base_tma_nspace_invalid.exit.i, %pmix_bfrops_base_tma_nspace_invalid.exit.thread2.i
  %.0.i = phi i1 [ true, %pmix_bfrops_base_tma_nspace_invalid.exit.i ], [ %11, %pmix_bfrops_base_tma_nspace_invalid.exit.thread2.i ], [ true, %1 ]
  ret i1 %.0.i
}